target datalayout = "e-m:e-p270:32:32-p271:32:32-p272:64:64-i64:64-i128:128-f80:128-n8:16:32:64-S128"
target triple = "x86_64-pc-linux-gnu"

%struct.phpdbg_btree = type { i64, i64, i8, ptr }

; Function Attrs: nounwind uwtable
define hidden void @phpdbg_btree_init(ptr noundef %0, i64 noundef %1) #0 {
  %3 = alloca ptr, align 8
  %4 = alloca i64, align 8
  store ptr %0, ptr %3, align 8
  store i64 %1, ptr %4, align 8
  %5 = load i64, ptr %4, align 8
  %6 = load ptr, ptr %3, align 8
  %7 = getelementptr inbounds %struct.phpdbg_btree, ptr %6, i32 0, i32 1
  store i64 %5, ptr %7, align 8
  %8 = load ptr, ptr %3, align 8
  %9 = getelementptr inbounds %struct.phpdbg_btree, ptr %8, i32 0, i32 3
  store ptr null, ptr %9, align 8
  %10 = load ptr, ptr %3, align 8
  %11 = getelementptr inbounds %struct.phpdbg_btree, ptr %10, i32 0, i32 2
  store i8 0, ptr %11, align 8
  %12 = load ptr, ptr %3, align 8
  %13 = getelementptr inbounds %struct.phpdbg_btree, ptr %12, i32 0, i32 0
  store i64 0, ptr %13, align 8
  ret void
}