; Function Attrs: mustprogress nofree norecurse nosync nounwind willreturn memory(argmem: write) uwtable
define hidden void @phpdbg_btree_init(ptr nocapture noundef writeonly %0, i64 noundef %1) local_unnamed_addr #0 {
  %3 = getelementptr inbounds i8, ptr %0, i64 8
  store i64 %1, ptr %3, align 8
  %4 = getelementptr inbounds i8, ptr %0, i64 24
  store ptr null, ptr %4, align 8
  %5 = getelementptr inbounds i8, ptr %0, i64 16
  store i8 0, ptr %5, align 8
  store i64 0, ptr %0, align 8
  ret void
}